; ModuleID = 'bench/clamav/original/execs.c.ll'
source_filename = "bench/clamav/original/execs.c.ll"
target datalayout = "e-m:e-p270:32:32-p271:32:32-p272:64:64-i64:64-i128:128-f80:128-n8:16:32:64-S128"
target triple = "x86_64-pc-linux-gnu"

; Function Attrs: mustprogress nofree norecurse nosync nounwind willreturn memory(argmem: write) uwtable
define void @cli_exe_info_init(ptr noundef writeonly %0, i32 noundef %1) local_unnamed_addr #0 {
  %3 = icmp eq ptr %0, null
  br i1 %3, label %6, label %4

4:                                                ; preds = %2
  tail call void @llvm.memset.p0.i64(ptr noundef nonnull align 8 dereferenceable(376) %0, i8 0, i64 376, i1 false)
  %5 = getelementptr inbounds i8, ptr %0, i64 8
  store i32 %1, ptr %5, align 8
  br label %6

6:                                                ; preds = %2, %4
  ret void
}

; Function Attrs: mustprogress nocallback nofree nounwind willreturn memory(argmem: write)
declare void @llvm.memset.p0.i64(ptr nocapture writeonly, i8, i64, i1 immarg) #1

; Function Attrs: nounwind uwtable
define void @cli_exe_info_destroy(ptr noundef %0) local_unnamed_addr #2 {
  %2 = icmp eq ptr %0, null
  br i1 %2, label %8, label %3

3:                                                ; preds = %1
  %4 = load ptr, ptr %0, align 8
  %.not = icmp eq ptr %4, null
  br i1 %.not, label %6, label %5

5:                                                ; preds = %3
  tail call void @free(ptr noundef nonnull %4) #5
  store ptr null, ptr %0, align 8
  br label %6

6:                                                ; preds = %5, %3
  %7 = getelementptr inbounds i8, ptr %0, i64 32
  tail call void @cli_hashset_destroy(ptr noundef nonnull %7) #5
  br label %8

8:                                                ; preds = %1, %6
  ret void
}

; Function Attrs: mustprogress nounwind willreturn allockind("free") memory(argmem: readwrite, inaccessiblemem: readwrite)
declare void @free(ptr allocptr nocapture noundef) local_unnamed_addr #3

declare void @cli_hashset_destroy(ptr noundef) local_unnamed_addr #4


!llvm.module.flags = !{!0, !1, !2, !3}

!0 = !{i32 1, !"wchar_size", i32 4}
!1 = !{i32 8, !"PIC Level", i32 2}
!2 = !{i32 7, !"uwtable", i32 2}
!3 = !{i32 7, !"frame-pointer", i32 2}
